; Function Attrs: mustprogress uwtable
define void @_ZN7rocksdb9lru_cache13LRUCacheShard15TEST_GetLRUListEPPNS0_9LRUHandleES4_S4_(ptr noundef nonnull align 64 dereferenceable(256) %this, ptr nocapture noundef writeonly %lru, ptr nocapture noundef writeonly %lru_low_pri, ptr nocapture noundef writeonly %lru_bottom_pri) local_unnamed_addr #0 align 2 personality ptr @__gxx_personality_v0 {
entry:
  %mutex_ = getelementptr inbounds i8, ptr %this, i64 208
  tail call void @_ZN7rocksdb4port5Mutex4LockEv(ptr noundef nonnull align 8 dereferenceable(40) %mutex_)
  %lru_ = getelementptr inbounds i8, ptr %this, i64 72
  store ptr %lru_, ptr %lru, align 8
  %lru_low_pri_ = getelementptr inbounds i8, ptr %this, i64 144
  %0 = load ptr, ptr %lru_low_pri_, align 16
  store ptr %0, ptr %lru_low_pri, align 8
  %lru_bottom_pri_ = getelementptr inbounds i8, ptr %this, i64 152
  %1 = load ptr, ptr %lru_bottom_pri_, align 8
  store ptr %1, ptr %lru_bottom_pri, align 8
  invoke void @_ZN7rocksdb4port5Mutex6UnlockEv(ptr noundef nonnull align 8 dereferenceable(40) %mutex_)
          to label %_ZNSt10lock_guardIN7rocksdb4port5MutexEED2Ev.exit unwind label %terminate.lpad.i

terminate.lpad.i:                                 ; preds = %entry
  %2 = landingpad { ptr, i32 }
          catch ptr null
  %3 = extractvalue { ptr, i32 } %2, 0
  tail call void @__clang_call_terminate(ptr %3) #27
  unreachable

_ZNSt10lock_guardIN7rocksdb4port5MutexEED2Ev.exit: ; preds = %entry
  ret void
}